target datalayout = "e-m:e-p270:32:32-p271:32:32-p272:64:64-i64:64-i128:128-f80:128-n8:16:32:64-S128"
target triple = "x86_64-pc-linux-gnu"

; Function Attrs: nounwind uwtable
define internal void @sprite_h_c(ptr noundef %0, ptr noundef %1, i32 noundef %2, i32 noundef %3, i32 noundef %4) #1 {
  %6 = alloca ptr, align 8
  %7 = alloca ptr, align 8
  %8 = alloca i32, align 4
  %9 = alloca i32, align 4
  %10 = alloca i32, align 4
  %11 = alloca i32, align 4
  %12 = alloca i32, align 4
  store ptr %0, ptr %6, align 8, !tbaa !45
  store ptr %1, ptr %7, align 8, !tbaa !45
  store i32 %2, ptr %8, align 4, !tbaa !38
  store i32 %3, ptr %9, align 4, !tbaa !38
  store i32 %4, ptr %10, align 4, !tbaa !38
  br label %13

13:                                               ; preds = %17, %5
  %14 = load i32, ptr %10, align 4, !tbaa !38
  %15 = add nsw i32 %14, -1
  store i32 %15, ptr %10, align 4, !tbaa !38
  %16 = icmp ne i32 %14, 0
  br i1 %16, label %17, label %48

17:                                               ; preds = %13
  call void @llvm.lifetime.start.p0(i64 4, ptr %11) #7
  %18 = load ptr, ptr %7, align 8, !tbaa !45
  %19 = load i32, ptr %8, align 4, !tbaa !38
  %20 = ashr i32 %19, 16
  %21 = sext i32 %20 to i64
  %22 = getelementptr inbounds i8, ptr %18, i64 %21
  %23 = load i8, ptr %22, align 1, !tbaa !50
  %24 = zext i8 %23 to i32
  store i32 %24, ptr %11, align 4, !tbaa !38
  call void @llvm.lifetime.start.p0(i64 4, ptr %12) #7
  %25 = load ptr, ptr %7, align 8, !tbaa !45
  %26 = load i32, ptr %8, align 4, !tbaa !38
  %27 = ashr i32 %26, 16
  %28 = add nsw i32 %27, 1
  %29 = sext i32 %28 to i64
  %30 = getelementptr inbounds i8, ptr %25, i64 %29
  %31 = load i8, ptr %30, align 1, !tbaa !50
  %32 = zext i8 %31 to i32
  store i32 %32, ptr %12, align 4, !tbaa !38
  %33 = load i32, ptr %11, align 4, !tbaa !38
  %34 = load i32, ptr %12, align 4, !tbaa !38
  %35 = load i32, ptr %11, align 4, !tbaa !38
  %36 = sub nsw i32 %34, %35
  %37 = load i32, ptr %8, align 4, !tbaa !38
  %38 = and i32 %37, 65535
  %39 = mul nsw i32 %36, %38
  %40 = ashr i32 %39, 16
  %41 = add nsw i32 %33, %40
  %42 = trunc i32 %41 to i8
  %43 = load ptr, ptr %6, align 8, !tbaa !45
  %44 = getelementptr inbounds nuw i8, ptr %43, i32 1
  store ptr %44, ptr %6, align 8, !tbaa !45
  store i8 %42, ptr %43, align 1, !tbaa !50
  %45 = load i32, ptr %9, align 4, !tbaa !38
  %46 = load i32, ptr %8, align 4, !tbaa !38
  %47 = add nsw i32 %46, %45
  store i32 %47, ptr %8, align 4, !tbaa !38
  call void @llvm.lifetime.end.p0(i64 4, ptr %12) #7
  call void @llvm.lifetime.end.p0(i64 4, ptr %11) #7
  br label %13, !llvm.loop !72

48:                                               ; preds = %13
  ret void
}