; Function Attrs: nofree norecurse nosync nounwind memory(argmem: readwrite) uwtable
define internal void @sprite_h_c(ptr noundef writeonly captures(none) %0, ptr noundef readonly captures(none) %1, i32 noundef %2, i32 noundef %3, i32 noundef %4) #1 {
  %.not13 = icmp eq i32 %4, 0
  br i1 %.not13, label %._crit_edge, label %.lr.ph

.lr.ph:                                           ; preds = %5, %.lr.ph
  %.016 = phi ptr [ %21, %.lr.ph ], [ %0, %5 ]
  %.01115 = phi i32 [ %22, %.lr.ph ], [ %2, %5 ]
  %.01214 = phi i32 [ %6, %.lr.ph ], [ %4, %5 ]
  %6 = add nsw i32 %.01214, -1
  %7 = ashr i32 %.01115, 16
  %8 = sext i32 %7 to i64
  %9 = getelementptr inbounds i8, ptr %1, i64 %8
  %10 = load i8, ptr %9, align 1, !tbaa !40
  %11 = zext i8 %10 to i32
  %12 = getelementptr i8, ptr %9, i64 1
  %13 = load i8, ptr %12, align 1, !tbaa !40
  %14 = zext i8 %13 to i32
  %15 = sub nsw i32 %14, %11
  %16 = and i32 %.01115, 65535
  %17 = mul nsw i32 %15, %16
  %18 = lshr i32 %17, 16
  %19 = trunc i32 %18 to i8
  %20 = add i8 %10, %19
  %21 = getelementptr inbounds nuw i8, ptr %.016, i64 1
  store i8 %20, ptr %.016, align 1, !tbaa !40
  %22 = add nsw i32 %.01115, %3
  %.not = icmp eq i32 %6, 0
  br i1 %.not, label %._crit_edge, label %.lr.ph, !llvm.loop !96

._crit_edge:                                      ; preds = %.lr.ph, %5
  ret void
}